; Function Attrs: mustprogress nounwind uwtable
define dso_local void @_ZN11cmXMLParserD0Ev(ptr noundef nonnull align 8 dereferenceable(40) %0) unnamed_addr #4 align 2 personality ptr @__gxx_personality_v0 {
  store ptr getelementptr inbounds ({ [16 x ptr] }, ptr @_ZTV11cmXMLParser, i64 0, i32 0, i64 2), ptr %0, align 8
  %2 = getelementptr inbounds i8, ptr %0, i64 32
  %3 = load ptr, ptr %2, align 8
  %.not.i = icmp eq ptr %3, null
  br i1 %.not.i, label %_ZN11cmXMLParserD2Ev.exit, label %4

4:                                                ; preds = %1
  %5 = getelementptr inbounds i8, ptr %0, i64 8
  %6 = load i32, ptr %5, align 8
  %.not5.i.i = icmp eq i32 %6, 0
  br i1 %.not5.i.i, label %7, label %.noexc3.i

7:                                                ; preds = %4
  %8 = invoke i32 @XML_Parse(ptr noundef nonnull %3, ptr noundef nonnull @.str.2, i32 noundef 0, i32 noundef 1)
          to label %.noexc2.i unwind label %14

.noexc2.i:                                        ; preds = %7
  %.not6.i.i = icmp eq i32 %8, 0
  br i1 %.not6.i.i, label %9, label %.noexc3.i

9:                                                ; preds = %.noexc2.i
  %10 = load ptr, ptr %0, align 8
  %11 = getelementptr inbounds i8, ptr %10, i64 88
  %12 = load ptr, ptr %11, align 8
  invoke void %12(ptr noundef nonnull align 8 dereferenceable(40) %0)
          to label %.noexc3.i unwind label %14

.noexc3.i:                                        ; preds = %9, %.noexc2.i, %4
  %13 = load ptr, ptr %2, align 8
  invoke void @XML_ParserFree(ptr noundef %13)
          to label %_ZN11cmXMLParserD2Ev.exit unwind label %14

14:                                               ; preds = %.noexc3.i, %9, %7
  %15 = landingpad { ptr, i32 }
          catch ptr null
  %16 = extractvalue { ptr, i32 } %15, 0
  tail call void @__clang_call_terminate(ptr %16) #14
  unreachable

_ZN11cmXMLParserD2Ev.exit:                        ; preds = %.noexc3.i, %1
  tail call void @_ZdlPv(ptr noundef nonnull %0) #16
  ret void
}